target datalayout = "e-m:e-p270:32:32-p271:32:32-p272:64:64-i64:64-i128:128-f80:128-n8:16:32:64-S128"
target triple = "x86_64-pc-linux-gnu"

; Function Attrs: nounwind uwtable
define i32 @fdt_find_max_phandle(ptr noundef %0, ptr noundef %1) #0 {
  %3 = alloca i32, align 4
  %4 = alloca ptr, align 8
  %5 = alloca ptr, align 8
  %6 = alloca i32, align 4
  %7 = alloca i32, align 4
  %8 = alloca i32, align 4
  %9 = alloca i32, align 4
  store ptr %0, ptr %4, align 8, !tbaa !3
  store ptr %1, ptr %5, align 8, !tbaa !9
  call void @llvm.lifetime.start.p0(i64 4, ptr %6) #6
  store i32 0, ptr %6, align 4, !tbaa !7
  call void @llvm.lifetime.start.p0(i64 4, ptr %7) #6
  store i32 -1, ptr %7, align 4, !tbaa !7
  br label %10

10:                                               ; preds = %35, %2
  br label %11

11:                                               ; preds = %10
  call void @llvm.lifetime.start.p0(i64 4, ptr %8) #6
  %12 = load ptr, ptr %4, align 8, !tbaa !3
  %13 = load i32, ptr %7, align 4, !tbaa !7
  %14 = call i32 @fdt_next_node(ptr noundef %12, i32 noundef %13, ptr noundef null)
  store i32 %14, ptr %7, align 4, !tbaa !7
  %15 = load i32, ptr %7, align 4, !tbaa !7
  %16 = icmp slt i32 %15, 0
  br i1 %16, label %17, label %23

17:                                               ; preds = %11
  %18 = load i32, ptr %7, align 4, !tbaa !7
  %19 = icmp eq i32 %18, -1
  br i1 %19, label %20, label %21

20:                                               ; preds = %17
  store i32 3, ptr %9, align 4
  br label %33

21:                                               ; preds = %17
  %22 = load i32, ptr %7, align 4, !tbaa !7
  store i32 %22, ptr %3, align 4
  store i32 1, ptr %9, align 4
  br label %33

23:                                               ; preds = %11
  %24 = load ptr, ptr %4, align 8, !tbaa !3
  %25 = load i32, ptr %7, align 4, !tbaa !7
  %26 = call i32 @fdt_get_phandle(ptr noundef %24, i32 noundef %25)
  store i32 %26, ptr %8, align 4, !tbaa !7
  %27 = load i32, ptr %8, align 4, !tbaa !7
  %28 = load i32, ptr %6, align 4, !tbaa !7
  %29 = icmp ugt i32 %27, %28
  br i1 %29, label %30, label %32

30:                                               ; preds = %23
  %31 = load i32, ptr %8, align 4, !tbaa !7
  store i32 %31, ptr %6, align 4, !tbaa !7
  br label %32

32:                                               ; preds = %30, %23
  store i32 0, ptr %9, align 4
  br label %33

33:                                               ; preds = %32, %21, %20
  call void @llvm.lifetime.end.p0(i64 4, ptr %8) #6
  %34 = load i32, ptr %9, align 4
  switch i32 %34, label %43 [
    i32 0, label %35
    i32 3, label %36
  ]

35:                                               ; preds = %33
  br label %10

36:                                               ; preds = %33
  %37 = load ptr, ptr %5, align 8, !tbaa !9
  %38 = icmp ne ptr %37, null
  br i1 %38, label %39, label %42

39:                                               ; preds = %36
  %40 = load i32, ptr %6, align 4, !tbaa !7
  %41 = load ptr, ptr %5, align 8, !tbaa !9
  store i32 %40, ptr %41, align 4, !tbaa !7
  br label %42

42:                                               ; preds = %39, %36
  store i32 0, ptr %3, align 4
  store i32 1, ptr %9, align 4
  br label %43

43:                                               ; preds = %42, %33
  call void @llvm.lifetime.end.p0(i64 4, ptr %7) #6
  call void @llvm.lifetime.end.p0(i64 4, ptr %6) #6
  %44 = load i32, ptr %3, align 4
  ret i32 %44
}

; Function Attrs: nounwind uwtable
define i32 @fdt_generate_phandle(ptr noundef %0, ptr noundef %1) #0 {
  %3 = alloca i32, align 4
  %4 = alloca ptr, align 8
  %5 = alloca ptr, align 8
  %6 = alloca i32, align 4
  %7 = alloca i32, align 4
  %8 = alloca i32, align 4
  store ptr %0, ptr %4, align 8, !tbaa !3
  store ptr %1, ptr %5, align 8, !tbaa !9
  call void @llvm.lifetime.start.p0(i64 4, ptr %6) #6
  call void @llvm.lifetime.start.p0(i64 4, ptr %7) #6
  %9 = load ptr, ptr %4, align 8, !tbaa !3
  %10 = call i32 @fdt_find_max_phandle(ptr noundef %9, ptr noundef %6)
  store i32 %10, ptr %7, align 4, !tbaa !7
  %11 = load i32, ptr %7, align 4, !tbaa !7
  %12 = icmp slt i32 %11, 0
  br i1 %12, label %13, label %15

13:                                               ; preds = %2
  %14 = load i32, ptr %7, align 4, !tbaa !7
  store i32 %14, ptr %3, align 4
  store i32 1, ptr %8, align 4
  br label %27

15:                                               ; preds = %2
  %16 = load i32, ptr %6, align 4, !tbaa !7
  %17 = icmp eq i32 %16, -2
  br i1 %17, label %18, label %19

18:                                               ; preds = %15
  store i32 -17, ptr %3, align 4
  store i32 1, ptr %8, align 4
  br label %27

19:                                               ; preds = %15
  %20 = load ptr, ptr %5, align 8, !tbaa !9
  %21 = icmp ne ptr %20, null
  br i1 %21, label %22, label %26

22:                                               ; preds = %19
  %23 = load i32, ptr %6, align 4, !tbaa !7
  %24 = add i32 %23, 1
  %25 = load ptr, ptr %5, align 8, !tbaa !9
  store i32 %24, ptr %25, align 4, !tbaa !7
  br label %26

26:                                               ; preds = %22, %19
  store i32 0, ptr %3, align 4
  store i32 1, ptr %8, align 4
  br label %27

27:                                               ; preds = %26, %18, %13
  call void @llvm.lifetime.end.p0(i64 4, ptr %7) #6
  call void @llvm.lifetime.end.p0(i64 4, ptr %6) #6
  %28 = load i32, ptr %3, align 4
  ret i32 %28
}