; Function Attrs: nounwind uwtable
define range(i32 -2147483648, 1) i32 @fdt_generate_phandle(ptr noundef %0, ptr noundef writeonly captures(address_is_null) %1) local_unnamed_addr #0 {
  %3 = tail call i32 @fdt_next_node(ptr noundef %0, i32 noundef -1, ptr noundef null) #9
  %4 = icmp slt i32 %3, 0
  br i1 %4, label %._crit_edge.i.thread, label %.lr.ph.i

._crit_edge.i:                                    ; preds = %.lr.ph.i
  %5 = icmp eq i32 %9, -1
  br i1 %5, label %fdt_find_max_phandle.exit, label %fdt_find_max_phandle.exit.thread

._crit_edge.i.thread:                             ; preds = %2
  %6 = icmp eq i32 %3, -1
  br i1 %6, label %fdt_find_max_phandle.exit.thread15, label %fdt_find_max_phandle.exit.thread

.lr.ph.i:                                         ; preds = %2, %.lr.ph.i
  %7 = phi i32 [ %9, %.lr.ph.i ], [ %3, %2 ]
  %.01631.i = phi i32 [ %spec.select.i, %.lr.ph.i ], [ 0, %2 ]
  %8 = tail call i32 @fdt_get_phandle(ptr noundef %0, i32 noundef %7)
  %spec.select.i = tail call i32 @llvm.umax.i32(i32 %8, i32 %.01631.i)
  %9 = tail call i32 @fdt_next_node(ptr noundef %0, i32 noundef %7, ptr noundef null) #9
  %10 = icmp slt i32 %9, 0
  br i1 %10, label %._crit_edge.i, label %.lr.ph.i

fdt_find_max_phandle.exit:                        ; preds = %._crit_edge.i
  %11 = icmp eq i32 %spec.select.i, -2
  br i1 %11, label %fdt_find_max_phandle.exit.thread, label %fdt_find_max_phandle.exit.thread15

fdt_find_max_phandle.exit.thread15:               ; preds = %._crit_edge.i.thread, %fdt_find_max_phandle.exit
  %.016.lcssa.i1317 = phi i32 [ %spec.select.i, %fdt_find_max_phandle.exit ], [ 0, %._crit_edge.i.thread ]
  %.not = icmp eq ptr %1, null
  br i1 %.not, label %fdt_find_max_phandle.exit.thread, label %12

12:                                               ; preds = %fdt_find_max_phandle.exit.thread15
  %13 = add i32 %.016.lcssa.i1317, 1
  store i32 %13, ptr %1, align 4, !tbaa !6
  br label %fdt_find_max_phandle.exit.thread

fdt_find_max_phandle.exit.thread:                 ; preds = %._crit_edge.i, %._crit_edge.i.thread, %fdt_find_max_phandle.exit.thread15, %12, %fdt_find_max_phandle.exit
  %.0 = phi i32 [ -17, %fdt_find_max_phandle.exit ], [ 0, %12 ], [ 0, %fdt_find_max_phandle.exit.thread15 ], [ %3, %._crit_edge.i.thread ], [ %9, %._crit_edge.i ]
  ret i32 %.0
}